#include <math.h>
#include <stdio.h>
#include <stdlib.h>
#include <string.h>

int main()
{
	int n,k,i,j;
	double a[1000],s,x;
	scanf("%d",&n);
	for(i=0;i<n;i++)
	{
		double sum=0,sumx=0;
		scanf("%d",&k);
		for(j=0;j<k;j++)
		{
			scanf("%lf",&a[j]);
			sum=sum+a[j];
		}
		x=(double)sum/k;
		for(j=0;j<k;j++)
		{
			sumx=sumx+(a[j]-x)*(a[j]-x);
		}
		s=(double)sqrt(sumx/k);
		printf("%.5lf\n",s);
	}
	return 0;
}